; ModuleID = '62/1469.c'
source_filename = "62/1469.c"
target datalayout = "e-m:e-p270:32:32-p271:32:32-p272:64:64-i64:64-f80:128-n8:16:32:64-S128"
target triple = "x86_64-pc-linux-gnu"

@.str = private unnamed_addr constant [3 x i8] c"%c\00", align 1

; Function Attrs: noinline nounwind uwtable
define dso_local void @main() #0 {
  %1 = alloca [1000 x i8*], align 16
  %2 = alloca i8*, align 8
  %3 = alloca i32, align 4
  %4 = getelementptr inbounds [1000 x i8*], [1000 x i8*]* %1, i64 0, i64 0
  %5 = call i32 (i8**, ...) bitcast (i32 (...)* @gets to i32 (i8**, ...)*)(i8** %4)
  %6 = getelementptr inbounds [1000 x i8*], [1000 x i8*]* %1, i64 0, i64 0
  %7 = bitcast i8** %6 to i8*
  store i8* %7, i8** %2, align 8
  br label %8

8:                                                ; preds = %30, %0
  %9 = load i8*, i8** %2, align 8
  %10 = load i8, i8* %9, align 1
  %11 = sext i8 %10 to i32
  %12 = icmp ne i32 %11, 0
  br i1 %12, label %13, label %33

13:                                               ; preds = %8
  %14 = load i8*, i8** %2, align 8
  %15 = load i8, i8* %14, align 1
  %16 = sext i8 %15 to i32
  %17 = icmp eq i32 %16, 32
  br i1 %17, label %18, label %25

18:                                               ; preds = %13
  %19 = load i8*, i8** %2, align 8
  %20 = getelementptr inbounds i8, i8* %19, i64 1
  %21 = load i8, i8* %20, align 1
  %22 = sext i8 %21 to i32
  %23 = icmp eq i32 %22, 32
  br i1 %23, label %24, label %25

24:                                               ; preds = %18
  br label %30

25:                                               ; preds = %18, %13
  %26 = load i8*, i8** %2, align 8
  %27 = load i8, i8* %26, align 1
  %28 = sext i8 %27 to i32
  %29 = call i32 (i8*, ...) @printf(i8* getelementptr inbounds ([3 x i8], [3 x i8]* @.str, i64 0, i64 0), i32 %28)
  br label %30

30:                                               ; preds = %25, %24
  %31 = load i8*, i8** %2, align 8
  %32 = getelementptr inbounds i8, i8* %31, i32 1
  store i8* %32, i8** %2, align 8
  br label %8

33:                                               ; preds = %8
  ret void
}

declare dso_local i32 @gets(...) #1

declare dso_local i32 @printf(i8*, ...) #1


!llvm.module.flags = !{!0}
!llvm.ident = !{!1}

!0 = !{i32 1, !"wchar_size", i32 4}
!1 = !{!"clang version 10.0.0-4ubuntu1 "}
